(lp1
I535
aI1327
aI12893
aI5201
aI9494
aI9465
aI760
aI7268
aI676
aI349
aI256
aI1151
aI3738
aI689
aI373
aI909
aI490
aI2622
aI596
aI424
aI2834
aI411
aI1908
aI2465
aI737
aI728
aI180
aI10945
aI2337
aI15989
aI225
aI179
aI423
aI2063
aI1210
aI797
aI695
aI662
aI2226
aI12157
aI977
aI264
aI3717
aI1272
aI859
aI2992
aI2570
aI125
aI678
aI1070
aI966
aI2257
aI1568
aI2909
aI2640
aI2727
aI5880
aI4197
aI1772
aI852
aI161
aI137
aI3612
aI331
aI533
aI394
aI610
aI476
aI208
aI760
aI192
aI154
aI5305
aI1938
aI260
aI345
aI215
aI2051
aI192
aI2130
aI131
aI345
aI5673
aI180
aI330
aI783
aI113
aI437
aI475
aI251
aI856
aI581
aI121
aI352
aI1039
aI133
aI101
aI102
aI381
aI6277
aI459
aI336
aI788
aI756
aI158
aI114
aI603
aI298
aI536
aI579
aI316
aI2407
aI2262
aI233
aI246
aI664
aI494
aI384
aI747
aI285
aI102
aI335
aI1429
aI734
aI109
aI204
aI254
aI218
aI148
aI112
aI90
aI1006
aI363
aI1285
aI156
aI3500
aI106
aI1153
aI114
aI343
aI192
aI2655
aI246
aI3310
aI268
aI187
aI2671
aI787
aI154
aI463
aI142
aI125
aI271
aI721
aI552
aI2265
aI142
aI121
aI688
aI1085
aI225
aI137
aI417
aI269
aI93
aI191
aI172
aI100
aI144
aI121
aI146
aI526
aI8423
aI220
aI162
aI104
aI300
aI179
aI259
aI1511
aI750
aI814
aI122
aI3795
aI101
aI182
aI335
aI128
aI305
aI1404
aI217
aI101
aI276
aI107
aI717
aI103
aI622
aI108
aI497
aI305
aI456
aI100
aI142
aI100
aI37
aI607
aI131
aI215
aI99
aI166
aI157
aI449
aI475
aI181
aI183
aI190
aI416
aI360
aI218
aI427
aI178
aI121
aI386
aI250
aI153
aI137
aI236
aI573
aI125
aI102
aI296
aI141
aI160
aI181
aI198
aI117
aI149
a.